# SymbolsHelper-Confirmed: 6.2.2 amd64
libQt6DesignerComponents.so.6 libqt6designercomponents6 #MINVER#
| libqt6designercomponents6 #MINVER#, qt6-designer-abi (= 6.2.2)
* Build-Depends-Package: qt6-tools-dev
 _ZGVZN9QMetaType21registerConverterImplI4QMapIi5QIconE9QIterableI16QMetaAssociationEEEbSt8functionIFbPKvPvEES_S_E10unregister@Base 6.2.2
 _ZGVZN9QMetaType21registerConverterImplI5QListIP7QWidgetE9QIterableI13QMetaSequenceEEEbSt8functionIFbPKvPvEES_S_E10unregister@Base 6.2.2
 _ZGVZN9QMetaType21registerConverterImplI5QListISt4pairI7QStringjEE9QIterableI13QMetaSequenceEEEbSt8functionIFbPKvPvEES_S_E10unregister@Base 6.2.2
 _ZGVZN9QMetaType21registerConverterImplISt4pairI7QStringjEN17QtMetaTypePrivate25QPairVariantInterfaceImplEEEbSt8functionIFbPKvPvEES_S_E10unregister@Base 6.2.2
 _ZGVZN9QMetaType23registerMutableViewImplI4QMapIi5QIconE9QIterableI16QMetaAssociationEEEbSt8functionIFbPvS8_EES_S_E10unregister@Base 6.2.2
 _ZGVZN9QMetaType23registerMutableViewImplI5QListIP7QWidgetE9QIterableI13QMetaSequenceEEEbSt8functionIFbPvS9_EES_S_E10unregister@Base 6.2.2
 _ZGVZN9QMetaType23registerMutableViewImplI5QListISt4pairI7QStringjEE9QIterableI13QMetaSequenceEEEbSt8functionIFbPvSA_EES_S_E10unregister@Base 6.2.2
 _ZN19QDesignerComponents14createTaskMenuEP28QDesignerFormEditorInterfaceP7QObject@Base 6.2.2
 _ZN19QDesignerComponents15createWidgetBoxEP28QDesignerFormEditorInterfaceP7QWidget@Base 6.2.2
 _ZN19QDesignerComponents16createFormEditorEP7QObject@Base 6.2.2
 _ZN19QDesignerComponents17initializePluginsEP28QDesignerFormEditorInterface@Base 6.2.2
 _ZN19QDesignerComponents18createActionEditorEP28QDesignerFormEditorInterfaceP7QWidget@Base 6.2.2
 _ZN19QDesignerComponents19initializeResourcesEv@Base 6.2.2
 _ZN19QDesignerComponents20createPropertyEditorEP28QDesignerFormEditorInterfaceP7QWidget@Base 6.2.2
 _ZN19QDesignerComponents20createResourceEditorEP28QDesignerFormEditorInterfaceP7QWidget@Base 6.2.2
 _ZN19QDesignerComponents21createObjectInspectorEP28QDesignerFormEditorInterfaceP7QWidget@Base 6.2.2
 _ZN19QDesignerComponents22createSignalSlotEditorEP28QDesignerFormEditorInterfaceP7QWidget@Base 6.2.2
 (optional=templinst)_ZNSt8_Rb_treeI7QStringSt4pairIKS0_8QVariantESt10_Select1stIS4_ESt4lessIS0_ESaIS4_EE22_M_emplace_hint_uniqueIJRKSt21piecewise_construct_tSt5tupleIJRS2_EESF_IJRKS3_EEEEESt17_Rb_tree_iteratorIS4_ESt23_Rb_tree_const_iteratorIS4_EDpOT_@Base 6.2.2
 (optional=templinst)_ZNSt8_Rb_treeI7QStringSt4pairIKS0_8QVariantESt10_Select1stIS4_ESt4lessIS0_ESaIS4_EE29_M_get_insert_hint_unique_posESt23_Rb_tree_const_iteratorIS4_ERS2_@Base 6.2.2
 (optional=templinst)_ZNSt8_Rb_treeI7QStringSt4pairIKS0_8QVariantESt10_Select1stIS4_ESt4lessIS0_ESaIS4_EE7_M_copyILb0ENSA_11_Alloc_nodeEEEPSt13_Rb_tree_nodeIS4_ESF_PSt18_Rb_tree_node_baseRT0_@Base 6.2.2
 (optional=templinst)_ZNSt8_Rb_treeI7QStringSt4pairIKS0_8QVariantESt10_Select1stIS4_ESt4lessIS0_ESaIS4_EE8_M_eraseEPSt13_Rb_tree_nodeIS4_E@Base 6.2.2
 (optional=templinst)_ZNSt8_Rb_treeI7QStringSt4pairIKS0_N7QLocale7CountryEESt10_Select1stIS5_ESt4lessIS0_ESaIS5_EE10_M_insert_IS5_NSB_11_Alloc_nodeEEESt17_Rb_tree_iteratorIS5_EPSt18_Rb_tree_node_baseSH_OT_RT0_@Base 6.2.2
 (optional=templinst)_ZNSt8_Rb_treeI7QStringSt4pairIKS0_N7QLocale7CountryEESt10_Select1stIS5_ESt4lessIS0_ESaIS5_EE16_M_insert_equal_IS5_NSB_11_Alloc_nodeEEESt17_Rb_tree_iteratorIS5_ESt23_Rb_tree_const_iteratorIS5_EOT_RT0_@Base 6.2.2
 (optional=templinst)_ZNSt8_Rb_treeI7QStringSt4pairIKS0_N7QLocale7CountryEESt10_Select1stIS5_ESt4lessIS0_ESaIS5_EE28_M_get_insert_hint_equal_posESt23_Rb_tree_const_iteratorIS5_ERS2_@Base 6.2.2
 (optional=templinst)_ZNSt8_Rb_treeI7QStringSt4pairIKS0_N7QLocale7CountryEESt10_Select1stIS5_ESt4lessIS0_ESaIS5_EE7_M_copyILb0ENSB_11_Alloc_nodeEEEPSt13_Rb_tree_nodeIS5_ESG_PSt18_Rb_tree_node_baseRT0_@Base 6.2.2
 (optional=templinst)_ZNSt8_Rb_treeI7QStringSt4pairIKS0_N7QLocale7CountryEESt10_Select1stIS5_ESt4lessIS0_ESaIS5_EE8_M_eraseEPSt13_Rb_tree_nodeIS5_E@Base 6.2.2
 (optional=templinst)_ZNSt8_Rb_treeI7QStringSt4pairIKS0_N7QLocale8LanguageEESt10_Select1stIS5_ESt4lessIS0_ESaIS5_EE10_M_insert_IS5_NSB_11_Alloc_nodeEEESt17_Rb_tree_iteratorIS5_EPSt18_Rb_tree_node_baseSH_OT_RT0_@Base 6.2.2
 (optional=templinst)_ZNSt8_Rb_treeI7QStringSt4pairIKS0_N7QLocale8LanguageEESt10_Select1stIS5_ESt4lessIS0_ESaIS5_EE16_M_insert_equal_IS5_NSB_11_Alloc_nodeEEESt17_Rb_tree_iteratorIS5_ESt23_Rb_tree_const_iteratorIS5_EOT_RT0_@Base 6.2.2
 (optional=templinst)_ZNSt8_Rb_treeI7QStringSt4pairIKS0_N7QLocale8LanguageEESt10_Select1stIS5_ESt4lessIS0_ESaIS5_EE28_M_get_insert_hint_equal_posESt23_Rb_tree_const_iteratorIS5_ERS2_@Base 6.2.2
 (optional=templinst)_ZNSt8_Rb_treeI7QStringSt4pairIKS0_N7QLocale8LanguageEESt10_Select1stIS5_ESt4lessIS0_ESaIS5_EE7_M_copyILb0ENSB_11_Alloc_nodeEEEPSt13_Rb_tree_nodeIS5_ESG_PSt18_Rb_tree_node_baseRT0_@Base 6.2.2
 (optional=templinst)_ZNSt8_Rb_treeI7QStringSt4pairIKS0_N7QLocale8LanguageEESt10_Select1stIS5_ESt4lessIS0_ESaIS5_EE8_M_eraseEPSt13_Rb_tree_nodeIS5_E@Base 6.2.2
 (optional=templinst)_ZNSt8_Rb_treeI7QStringSt4pairIKS0_S0_ESt10_Select1stIS3_ESt4lessIS0_ESaIS3_EE22_M_emplace_hint_uniqueIJRKSt21piecewise_construct_tSt5tupleIJRS2_EESG_EEESt17_Rb_tree_iteratorIS3_ESt23_Rb_tree_const_iteratorIS3_EDpOT_@Base 6.2.2
 (optional=templinst)_ZNSt8_Rb_treeI7QStringSt4pairIKS0_S0_ESt10_Select1stIS3_ESt4lessIS0_ESaIS3_EE29_M_get_insert_hint_unique_posESt23_Rb_tree_const_iteratorIS3_ERS2_@Base 6.2.2
 (optional=templinst)_ZNSt8_Rb_treeI7QStringSt4pairIKS0_S0_ESt10_Select1stIS3_ESt4lessIS0_ESaIS3_EE7_M_copyILb0ENS9_11_Alloc_nodeEEEPSt13_Rb_tree_nodeIS3_ESE_PSt18_Rb_tree_node_baseRT0_@Base 6.2.2
 (optional=templinst)_ZNSt8_Rb_treeI7QStringSt4pairIKS0_S0_ESt10_Select1stIS3_ESt4lessIS0_ESaIS3_EE8_M_eraseEPSt13_Rb_tree_nodeIS3_E@Base 6.2.2
 (optional=templinst)_ZNSt8_Rb_treeI7QStringSt4pairIKS0_bESt10_Select1stIS3_ESt4lessIS0_ESaIS3_EE16_M_insert_uniqueIS3_EES1_ISt17_Rb_tree_iteratorIS3_EbEOT_@Base 6.2.2
 (optional=templinst)_ZNSt8_Rb_treeI7QStringSt4pairIKS0_bESt10_Select1stIS3_ESt4lessIS0_ESaIS3_EE22_M_emplace_hint_uniqueIJRKSt21piecewise_construct_tSt5tupleIJRS2_EESE_IJRKbEEEEESt17_Rb_tree_iteratorIS3_ESt23_Rb_tree_const_iteratorIS3_EDpOT_@Base 6.2.2
 (optional=templinst)_ZNSt8_Rb_treeI7QStringSt4pairIKS0_bESt10_Select1stIS3_ESt4lessIS0_ESaIS3_EE29_M_get_insert_hint_unique_posESt23_Rb_tree_const_iteratorIS3_ERS2_@Base 6.2.2
 (optional=templinst)_ZNSt8_Rb_treeI7QStringSt4pairIKS0_bESt10_Select1stIS3_ESt4lessIS0_ESaIS3_EE7_M_copyILb0ENS9_11_Alloc_nodeEEEPSt13_Rb_tree_nodeIS3_ESE_PSt18_Rb_tree_node_baseRT0_@Base 6.2.2
 (optional=templinst)_ZNSt8_Rb_treeI7QStringSt4pairIKS0_bESt10_Select1stIS3_ESt4lessIS0_ESaIS3_EE8_M_eraseEPSt13_Rb_tree_nodeIS3_E@Base 6.2.2
 (optional=templinst)_ZNSt8_Rb_treeI7QStringSt4pairIKS0_iESt10_Select1stIS3_ESt4lessIS0_ESaIS3_EE16_M_insert_uniqueIS3_EES1_ISt17_Rb_tree_iteratorIS3_EbEOT_@Base 6.2.2
 (optional=templinst)_ZNSt8_Rb_treeI7QStringSt4pairIKS0_iESt10_Select1stIS3_ESt4lessIS0_ESaIS3_EE7_M_copyILb0ENS9_11_Alloc_nodeEEEPSt13_Rb_tree_nodeIS3_ESE_PSt18_Rb_tree_node_baseRT0_@Base 6.2.2
 (optional=templinst)_ZNSt8_Rb_treeI7QStringSt4pairIKS0_iESt10_Select1stIS3_ESt4lessIS0_ESaIS3_EE8_M_eraseEPSt13_Rb_tree_nodeIS3_E@Base 6.2.2
 (optional=templinst)_ZNSt8_Rb_treeI7QStringSt4pairIKS0_jESt10_Select1stIS3_ESt4lessIS0_ESaIS3_EE8_M_eraseEPSt13_Rb_tree_nodeIS3_E@Base 6.2.2
 (optional=templinst)_ZNSt8_Rb_treeIN7QLocale7CountryESt4pairIKS1_iESt10_Select1stIS4_ESt4lessIS1_ESaIS4_EE16_M_insert_uniqueIS4_EES2_ISt17_Rb_tree_iteratorIS4_EbEOT_@Base 6.2.2
 (optional=templinst)_ZNSt8_Rb_treeIN7QLocale7CountryESt4pairIKS1_iESt10_Select1stIS4_ESt4lessIS1_ESaIS4_EE7_M_copyILb0ENSA_11_Alloc_nodeEEEPSt13_Rb_tree_nodeIS4_ESF_PSt18_Rb_tree_node_baseRT0_@Base 6.2.2
 (optional=templinst)_ZNSt8_Rb_treeIN7QLocale7CountryESt4pairIKS1_iESt10_Select1stIS4_ESt4lessIS1_ESaIS4_EE8_M_eraseEPSt13_Rb_tree_nodeIS4_E@Base 6.2.2
 (optional=templinst)_ZNSt8_Rb_treeIN7QLocale8LanguageESt4pairIKS1_iESt10_Select1stIS4_ESt4lessIS1_ESaIS4_EE16_M_insert_uniqueIS4_EES2_ISt17_Rb_tree_iteratorIS4_EbEOT_@Base 6.2.2
 (optional=templinst)_ZNSt8_Rb_treeIN7QLocale8LanguageESt4pairIKS1_iESt10_Select1stIS4_ESt4lessIS1_ESaIS4_EE7_M_copyILb0ENSA_11_Alloc_nodeEEEPSt13_Rb_tree_nodeIS4_ESF_PSt18_Rb_tree_node_baseRT0_@Base 6.2.2
 (optional=templinst)_ZNSt8_Rb_treeIN7QLocale8LanguageESt4pairIKS1_iESt10_Select1stIS4_ESt4lessIS1_ESaIS4_EE8_M_eraseEPSt13_Rb_tree_nodeIS4_E@Base 6.2.2
 (optional=templinst)_ZNSt8_Rb_treeIP11QLayoutItemSt4pairIKS1_5QRectESt10_Select1stIS5_ESt4lessIS1_ESaIS5_EE16_M_insert_uniqueIS5_EES2_ISt17_Rb_tree_iteratorIS5_EbEOT_@Base 6.2.2
 (optional=templinst)_ZNSt8_Rb_treeIP11QLayoutItemSt4pairIKS1_5QRectESt10_Select1stIS5_ESt4lessIS1_ESaIS5_EE7_M_copyILb0ENSB_11_Alloc_nodeEEEPSt13_Rb_tree_nodeIS5_ESG_PSt18_Rb_tree_node_baseRT0_@Base 6.2.2
 (optional=templinst)_ZNSt8_Rb_treeIP11QLayoutItemSt4pairIKS1_5QRectESt10_Select1stIS5_ESt4lessIS1_ESaIS5_EE8_M_eraseEPSt13_Rb_tree_nodeIS5_E@Base 6.2.2
 (optional=templinst)_ZNSt8_Rb_treeIP7QWidgetSt4pairIKS1_S2_I8QPalettebEESt10_Select1stIS6_ESt4lessIS1_ESaIS6_EE12_M_erase_auxESt23_Rb_tree_const_iteratorIS6_ESE_@Base 6.2.2
 (optional=templinst)_ZNSt8_Rb_treeIP7QWidgetSt4pairIKS1_S2_I8QPalettebEESt10_Select1stIS6_ESt4lessIS1_ESaIS6_EE22_M_emplace_hint_uniqueIJRKSt21piecewise_construct_tSt5tupleIJRS3_EESH_IJRKS5_EEEEESt17_Rb_tree_iteratorIS6_ESt23_Rb_tree_const_iteratorIS6_EDpOT_@Base 6.2.2
 (optional=templinst)_ZNSt8_Rb_treeIP7QWidgetSt4pairIKS1_S2_I8QPalettebEESt10_Select1stIS6_ESt4lessIS1_ESaIS6_EE29_M_get_insert_hint_unique_posESt23_Rb_tree_const_iteratorIS6_ERS3_@Base 6.2.2
 (optional=templinst)_ZNSt8_Rb_treeIP7QWidgetSt4pairIKS1_S2_I8QPalettebEESt10_Select1stIS6_ESt4lessIS1_ESaIS6_EE7_M_copyILb0ENSC_11_Alloc_nodeEEEPSt13_Rb_tree_nodeIS6_ESH_PSt18_Rb_tree_node_baseRT0_@Base 6.2.2
 (optional=templinst)_ZNSt8_Rb_treeIP7QWidgetSt4pairIKS1_S2_I8QPalettebEESt10_Select1stIS6_ESt4lessIS1_ESaIS6_EE8_M_eraseEPSt13_Rb_tree_nodeIS6_E@Base 6.2.2
 (optional=templinst)_ZNSt8_Rb_treeISt4pairI7QStringP7QObjectES0_IKS4_S3_ESt10_Select1stIS6_ESt4lessIS4_ESaIS6_EE8_M_eraseEPSt13_Rb_tree_nodeIS6_E@Base 6.2.2
 (optional=templinst)_ZNSt8_Rb_treeISt4pairIN5QIcon4ModeENS1_5StateEES0_IKS4_N18qdesigner_internal24PropertySheetPixmapValueEESt10_Select1stIS8_ESt4lessIS4_ESaIS8_EE8_M_eraseEPSt13_Rb_tree_nodeIS8_E@Base 6.2.2
 (optional=templinst)_ZNSt8_Rb_treeISt4pairIiiES0_IKS1_N18qdesigner_internal8ItemDataEESt10_Select1stIS5_ESt4lessIS1_ESaIS5_EE8_M_eraseEPSt13_Rb_tree_nodeIS5_E@Base 6.2.2
 (optional=templinst)_ZNSt8_Rb_treeIiSt4pairIKi5QIconESt10_Select1stIS3_ESt4lessIiESaIS3_EE12_M_erase_auxESt23_Rb_tree_const_iteratorIS3_ESB_@Base 6.2.2
 (optional=templinst)_ZNSt8_Rb_treeIiSt4pairIKi5QIconESt10_Select1stIS3_ESt4lessIiESaIS3_EE16_M_insert_uniqueIS3_EES0_ISt17_Rb_tree_iteratorIS3_EbEOT_@Base 6.2.2
 (optional=templinst)_ZNSt8_Rb_treeIiSt4pairIKi5QIconESt10_Select1stIS3_ESt4lessIiESaIS3_EE22_M_emplace_hint_uniqueIJRKSt21piecewise_construct_tSt5tupleIJRS1_EESE_IJRKS2_EEEEESt17_Rb_tree_iteratorIS3_ESt23_Rb_tree_const_iteratorIS3_EDpOT_@Base 6.2.2
 (optional=templinst)_ZNSt8_Rb_treeIiSt4pairIKi5QIconESt10_Select1stIS3_ESt4lessIiESaIS3_EE29_M_get_insert_hint_unique_posESt23_Rb_tree_const_iteratorIS3_ERS1_@Base 6.2.2
 (optional=templinst)_ZNSt8_Rb_treeIiSt4pairIKi5QIconESt10_Select1stIS3_ESt4lessIiESaIS3_EE7_M_copyILb0ENS9_11_Alloc_nodeEEEPSt13_Rb_tree_nodeIS3_ESE_PSt18_Rb_tree_node_baseRT0_@Base 6.2.2
 (optional=templinst)_ZNSt8_Rb_treeIiSt4pairIKi5QIconESt10_Select1stIS3_ESt4lessIiESaIS3_EE8_M_eraseEPSt13_Rb_tree_nodeIS3_E@Base 6.2.2
 (optional=templinst)_ZNSt8_Rb_treeIiSt4pairIKiN7QLocale7CountryEESt10_Select1stIS4_ESt4lessIiESaIS4_EE16_M_insert_uniqueIS4_EES0_ISt17_Rb_tree_iteratorIS4_EbEOT_@Base 6.2.2
 (optional=templinst)_ZNSt8_Rb_treeIiSt4pairIKiN7QLocale7CountryEESt10_Select1stIS4_ESt4lessIiESaIS4_EE7_M_copyILb0ENSA_11_Alloc_nodeEEEPSt13_Rb_tree_nodeIS4_ESF_PSt18_Rb_tree_node_baseRT0_@Base 6.2.2
 (optional=templinst)_ZNSt8_Rb_treeIiSt4pairIKiN7QLocale7CountryEESt10_Select1stIS4_ESt4lessIiESaIS4_EE8_M_eraseEPSt13_Rb_tree_nodeIS4_E@Base 6.2.2
 (optional=templinst)_ZNSt8_Rb_treeIiSt4pairIKiN7QLocale8LanguageEESt10_Select1stIS4_ESt4lessIiESaIS4_EE16_M_insert_uniqueIS4_EES0_ISt17_Rb_tree_iteratorIS4_EbEOT_@Base 6.2.2
 (optional=templinst)_ZNSt8_Rb_treeIiSt4pairIKiN7QLocale8LanguageEESt10_Select1stIS4_ESt4lessIiESaIS4_EE7_M_copyILb0ENSA_11_Alloc_nodeEEEPSt13_Rb_tree_nodeIS4_ESF_PSt18_Rb_tree_node_baseRT0_@Base 6.2.2
 (optional=templinst)_ZNSt8_Rb_treeIiSt4pairIKiN7QLocale8LanguageEESt10_Select1stIS4_ESt4lessIiESaIS4_EE8_M_eraseEPSt13_Rb_tree_nodeIS4_E@Base 6.2.2
 (optional=templinst)_ZNSt8_Rb_treeIiSt4pairIKiP15DomCustomWidgetESt10_Select1stIS4_ESt4lessIiESaIS4_EE29_M_get_insert_hint_unique_posESt23_Rb_tree_const_iteratorIS4_ERS1_@Base 6.2.2
 (optional=templinst)_ZNSt8_Rb_treeIiSt4pairIKiP15DomCustomWidgetESt10_Select1stIS4_ESt4lessIiESaIS4_EE7_M_copyILb0ENSA_11_Alloc_nodeEEEPSt13_Rb_tree_nodeIS4_ESF_PSt18_Rb_tree_node_baseRT0_@Base 6.2.2
 (optional=templinst)_ZNSt8_Rb_treeIiSt4pairIKiP15DomCustomWidgetESt10_Select1stIS4_ESt4lessIiESaIS4_EE8_M_eraseEPSt13_Rb_tree_nodeIS4_E@Base 6.2.2
 (optional=templinst)_ZNSt8_Rb_treeIiSt4pairIKiiESt10_Select1stIS2_ESt4lessIiESaIS2_EE16_M_insert_uniqueIS2_EES0_ISt17_Rb_tree_iteratorIS2_EbEOT_@Base 6.2.2
 (optional=templinst)_ZNSt8_Rb_treeIiSt4pairIKiiESt10_Select1stIS2_ESt4lessIiESaIS2_EE7_M_copyILb0ENS8_11_Alloc_nodeEEEPSt13_Rb_tree_nodeIS2_ESD_PSt18_Rb_tree_node_baseRT0_@Base 6.2.2
 (optional=templinst)_ZNSt8_Rb_treeIiSt4pairIKiiESt10_Select1stIS2_ESt4lessIiESaIS2_EE8_M_eraseEPSt13_Rb_tree_nodeIS2_E@Base 6.2.2
 _ZSt19piecewise_construct@Base 6.2.2
 _ZTI29QDesignerOptionsPageInterface@Base 6.2.2
 _ZTI34QDesignerFormEditorPluginInterface@Base 6.2.2
 _ZTI34QDesignerFormWindowCursorInterface@Base 6.2.2
 _ZTIN18qdesigner_internal18QEditorFormBuilderE@Base 6.2.2
 _ZTIN18qdesigner_internal7CETypesE@Base 6.2.2
 _ZTS29QDesignerOptionsPageInterface@Base 6.2.2
 _ZTS34QDesignerFormEditorPluginInterface@Base 6.2.2
 _ZTS34QDesignerFormWindowCursorInterface@Base 6.2.2
 _ZTSN18qdesigner_internal18QEditorFormBuilderE@Base 6.2.2
 _ZTSN18qdesigner_internal7CETypesE@Base 6.2.2
 (optional=templinst)_ZZN9QMetaType21registerConverterImplI4QMapIi5QIconE9QIterableI16QMetaAssociationEEEbSt8functionIFbPKvPvEES_S_E10unregister@Base 6.2.2
 (optional=templinst)_ZZN9QMetaType21registerConverterImplI5QListIP7QWidgetE9QIterableI13QMetaSequenceEEEbSt8functionIFbPKvPvEES_S_E10unregister@Base 6.2.2
 (optional=templinst)_ZZN9QMetaType21registerConverterImplI5QListISt4pairI7QStringjEE9QIterableI13QMetaSequenceEEEbSt8functionIFbPKvPvEES_S_E10unregister@Base 6.2.2
 (optional=templinst)_ZZN9QMetaType21registerConverterImplISt4pairI7QStringjEN17QtMetaTypePrivate25QPairVariantInterfaceImplEEEbSt8functionIFbPKvPvEES_S_E10unregister@Base 6.2.2
 (optional=templinst)_ZZN9QMetaType23registerMutableViewImplI4QMapIi5QIconE9QIterableI16QMetaAssociationEEEbSt8functionIFbPvS8_EES_S_E10unregister@Base 6.2.2
 (optional=templinst)_ZZN9QMetaType23registerMutableViewImplI5QListIP7QWidgetE9QIterableI13QMetaSequenceEEEbSt8functionIFbPvS9_EES_S_E10unregister@Base 6.2.2
 (optional=templinst)_ZZN9QMetaType23registerMutableViewImplI5QListISt4pairI7QStringjEE9QIterableI13QMetaSequenceEEEbSt8functionIFbPvSA_EES_S_E10unregister@Base 6.2.2
